target datalayout = "e-m:e-p270:32:32-p271:32:32-p272:64:64-i64:64-i128:128-f80:128-n8:16:32:64-S128"
target triple = "x86_64-pc-linux-gnu"

%struct._zend_executor_globals = type { %struct._zval_struct, %struct._zval_struct, [32 x ptr], ptr, ptr, %struct._zend_array, %struct._zend_array, ptr, i32, i32, ptr, ptr, ptr, ptr, ptr, ptr, i64, ptr, ptr, i32, i32, i64, i32, i32, i32, i8, i8, %struct.zend_atomic_bool_s, %struct.zend_atomic_bool_s, ptr, i64, ptr, ptr, %struct._zend_array, %struct._zend_array, i32, i8, %struct._zval_struct, %struct._zval_struct, %struct._zend_stack, %struct._zend_stack, %struct._zend_stack, ptr, i32, i32, i64, ptr, ptr, ptr, %struct._zend_objects_store, ptr, ptr, ptr, [3 x %struct._zend_op], ptr, i8, i8, i64, i32, i32, ptr, [16 x %struct._HashTableIterator], ptr, %union._zend_function, %struct._zend_op, %struct._zend_array, i64, %struct.zend_get_gc_buffer, ptr, ptr, ptr, i64, i8, i32, ptr, ptr, i64, %struct._zend_call_stack, i64, i64, [6 x ptr] }
%struct.zend_atomic_bool_s = type { i8 }
%struct._zval_struct = type { %union._zend_value, %union.anon, %union.anon.2 }
%union._zend_value = type { i64 }
%union.anon = type { i32 }
%union.anon.2 = type { i32 }
%struct._zend_stack = type { i32, i32, i32, ptr }
%struct._zend_objects_store = type { ptr, i32, i32, i32 }
%struct._HashTableIterator = type { ptr, i32, i32 }
%union._zend_function = type { %struct._zend_op_array }
%struct._zend_op_array = type { i8, [3 x i8], i32, ptr, ptr, ptr, i32, i32, ptr, ptr, ptr, ptr, i32, i32, i32, i32, ptr, ptr, ptr, ptr, ptr, i32, i32, ptr, ptr, ptr, i32, i32, i32, i32, ptr, ptr, [6 x ptr] }
%struct._zend_op = type { ptr, %union._znode_op, %union._znode_op, %union._znode_op, i32, i32, i8, i8, i8, i8 }
%union._znode_op = type { i32 }
%struct._zend_array = type { %struct._zend_refcounted_h, %union.anon.4, i32, %union.anon.6, i32, i32, i32, i32, i64, ptr }
%struct._zend_refcounted_h = type { i32, %union.anon.3 }
%union.anon.3 = type { i32 }
%union.anon.4 = type { i32 }
%union.anon.6 = type { ptr }
%struct.zend_get_gc_buffer = type { ptr, ptr, ptr }
%struct._zend_call_stack = type { ptr, i64 }
%struct._zend_execute_data = type { ptr, ptr, ptr, ptr, %struct._zval_struct, ptr, ptr, ptr, ptr }
%struct.anon.0 = type { i8, i8, %union.anon.1 }
%union.anon.1 = type { i16 }
%struct._zend_vm_stack = type { ptr, ptr, ptr }

@executor_globals = external global %struct._zend_executor_globals, align 8

; Function Attrs: nounwind uwtable
define hidden zeroext i1 @zend_jit_deprecated_helper(ptr noundef %0) #0 {
  %2 = alloca ptr, align 8
  %3 = alloca ptr, align 8
  %4 = alloca ptr, align 8
  %5 = alloca ptr, align 8
  %6 = alloca i32, align 4
  %7 = alloca ptr, align 8
  %8 = alloca ptr, align 8
  %9 = alloca ptr, align 8
  %10 = alloca ptr, align 8
  %11 = alloca ptr, align 8
  %12 = alloca i32, align 4
  %13 = alloca ptr, align 8
  %14 = alloca ptr, align 8
  %15 = alloca i1, align 1
  %16 = alloca ptr, align 8
  %17 = alloca ptr, align 8
  %18 = alloca ptr, align 8
  %19 = alloca ptr, align 8
  %20 = alloca ptr, align 8
  store ptr %0, ptr %16, align 8
  %21 = load ptr, ptr %16, align 8
  store ptr %21, ptr %17, align 8
  %22 = load ptr, ptr %17, align 8
  %23 = getelementptr inbounds %struct._zend_execute_data, ptr %22, i32 0, i32 3
  %24 = load ptr, ptr %23, align 8
  store ptr %24, ptr %18, align 8
  %25 = load ptr, ptr %18, align 8
  call void @zend_deprecated_function(ptr noundef %25)
  %26 = load ptr, ptr getelementptr inbounds (%struct._zend_executor_globals, ptr @executor_globals, i32 0, i32 50), align 8
  %27 = icmp ne ptr %26, null
  br i1 %27, label %28, label %161

28:                                               ; preds = %1
  %29 = load ptr, ptr getelementptr inbounds (%struct._zend_executor_globals, ptr @executor_globals, i32 0, i32 17), align 8
  store ptr %29, ptr %19, align 8
  %30 = load ptr, ptr getelementptr inbounds (%struct._zend_executor_globals, ptr @executor_globals, i32 0, i32 52), align 8
  store ptr %30, ptr %20, align 8
  %31 = load ptr, ptr %20, align 8
  %32 = icmp ne ptr %31, null
  br i1 %32, label %33, label %49

33:                                               ; preds = %28
  %34 = load ptr, ptr %20, align 8
  %35 = getelementptr inbounds %struct._zend_op, ptr %34, i32 0, i32 9
  %36 = load i8, ptr %35, align 1
  %37 = zext i8 %36 to i32
  %38 = icmp ne i32 %37, 0
  br i1 %38, label %39, label %49

39:                                               ; preds = %33
  br label %40

40:                                               ; preds = %39
  %41 = load ptr, ptr %19, align 8
  %42 = load ptr, ptr %20, align 8
  %43 = getelementptr inbounds %struct._zend_op, ptr %42, i32 0, i32 3
  %44 = load i32, ptr %43, align 8
  %45 = sext i32 %44 to i64
  %46 = getelementptr inbounds i8, ptr %41, i64 %45
  %47 = getelementptr inbounds %struct._zval_struct, ptr %46, i32 0, i32 1
  store i32 0, ptr %47, align 8
  br label %48

48:                                               ; preds = %40
  br label %49

49:                                               ; preds = %48, %33, %28
  %50 = load ptr, ptr %17, align 8
  store ptr %50, ptr %11, align 8
  %51 = load ptr, ptr %11, align 8
  %52 = getelementptr inbounds %struct._zend_execute_data, ptr %51, i32 0, i32 4
  %53 = getelementptr inbounds %struct._zval_struct, ptr %52, i32 0, i32 2
  %54 = load i32, ptr %53, align 4
  store i32 %54, ptr %12, align 4
  %55 = load i32, ptr %12, align 4
  %56 = icmp ugt i32 %55, 0
  br i1 %56, label %57, label %95

57:                                               ; preds = %49
  %58 = load ptr, ptr %11, align 8
  %59 = getelementptr inbounds %struct._zval_struct, ptr %58, i64 5
  store ptr %59, ptr %13, align 8
  br label %60

60:                                               ; preds = %88, %57
  %61 = load ptr, ptr %13, align 8
  store ptr %61, ptr %4, align 8
  %62 = load ptr, ptr %4, align 8
  %63 = getelementptr inbounds %struct._zval_struct, ptr %62, i32 0, i32 1
  %64 = getelementptr inbounds %struct.anon.0, ptr %63, i32 0, i32 1
  %65 = load i8, ptr %64, align 1
  %66 = zext i8 %65 to i32
  %67 = icmp ne i32 %66, 0
  br i1 %67, label %68, label %88

68:                                               ; preds = %60
  %69 = load ptr, ptr %4, align 8
  store ptr %69, ptr %3, align 8
  %70 = load ptr, ptr %3, align 8
  %71 = getelementptr inbounds %struct._zval_struct, ptr %70, i32 0, i32 1
  %72 = getelementptr inbounds %struct.anon.0, ptr %71, i32 0, i32 1
  %73 = load i8, ptr %72, align 1
  %74 = zext i8 %73 to i32
  %75 = icmp ne i32 %74, 0
  call void @llvm.assume(i1 %75)
  %76 = load ptr, ptr %3, align 8
  %77 = load ptr, ptr %76, align 8
  store ptr %77, ptr %2, align 8
  %78 = load ptr, ptr %2, align 8
  %79 = load i32, ptr %78, align 4
  %80 = icmp ugt i32 %79, 0
  call void @llvm.assume(i1 %80)
  %81 = load ptr, ptr %2, align 8
  %82 = load i32, ptr %81, align 4
  %83 = add i32 %82, -1
  store i32 %83, ptr %81, align 4
  %84 = icmp ne i32 %83, 0
  br i1 %84, label %88, label %85

85:                                               ; preds = %68
  %86 = load ptr, ptr %4, align 8
  %87 = load ptr, ptr %86, align 8
  call void @rc_dtor_func(ptr noundef %87) #4
  br label %88

88:                                               ; preds = %85, %68, %60
  %89 = load ptr, ptr %13, align 8
  %90 = getelementptr inbounds %struct._zval_struct, ptr %89, i32 1
  store ptr %90, ptr %13, align 8
  %91 = load i32, ptr %12, align 4
  %92 = add i32 %91, -1
  store i32 %92, ptr %12, align 4
  %93 = icmp ne i32 %92, 0
  br i1 %93, label %60, label %94

94:                                               ; preds = %88
  br label %95

95:                                               ; preds = %94, %49
  %96 = load ptr, ptr %17, align 8
  %97 = getelementptr inbounds %struct._zend_execute_data, ptr %96, i32 0, i32 4
  %98 = getelementptr inbounds %struct._zval_struct, ptr %97, i32 0, i32 1
  %99 = load i32, ptr %98, align 8
  %100 = and i32 %99, 2097152
  %101 = icmp ne i32 %100, 0
  %102 = xor i1 %101, true
  %103 = xor i1 %102, true
  %104 = zext i1 %103 to i32
  %105 = sext i32 %104 to i64
  %106 = icmp ne i64 %105, 0
  br i1 %106, label %107, label %132

107:                                              ; preds = %95
  %108 = load ptr, ptr %17, align 8
  %109 = getelementptr inbounds %struct._zend_execute_data, ptr %108, i32 0, i32 4
  %110 = getelementptr inbounds %struct._zval_struct, ptr %109, i32 0, i32 0
  %111 = load ptr, ptr %110, align 8
  store ptr %111, ptr %14, align 8
  %112 = load ptr, ptr %14, align 8
  store ptr %112, ptr %5, align 8
  %113 = load ptr, ptr %5, align 8
  %114 = load i32, ptr %113, align 4
  %115 = icmp ugt i32 %114, 0
  call void @llvm.assume(i1 %115)
  %116 = load ptr, ptr %5, align 8
  %117 = load i32, ptr %116, align 4
  %118 = add i32 %117, -1
  store i32 %118, ptr %116, align 4
  %119 = icmp eq i32 %118, 0
  br i1 %119, label %120, label %122

120:                                              ; preds = %107
  %121 = load ptr, ptr %14, align 8
  call void @zend_objects_store_del(ptr noundef %121) #4
  br label %131

122:                                              ; preds = %107
  %123 = load ptr, ptr %14, align 8
  %124 = getelementptr inbounds %struct._zend_refcounted_h, ptr %123, i32 0, i32 1
  %125 = load i32, ptr %124, align 4
  %126 = and i32 %125, -1008
  %127 = icmp eq i32 %126, 0
  br i1 %127, label %128, label %130

128:                                              ; preds = %122
  %129 = load ptr, ptr %14, align 8
  call void @gc_possible_root(ptr noundef %129) #4
  br label %130

130:                                              ; preds = %128, %122
  br label %131

131:                                              ; preds = %130, %120
  br label %132

132:                                              ; preds = %131, %95
  %133 = load ptr, ptr %17, align 8
  store ptr %133, ptr %10, align 8
  %134 = load ptr, ptr %10, align 8
  %135 = getelementptr inbounds %struct._zend_execute_data, ptr %134, i32 0, i32 4
  %136 = getelementptr inbounds %struct._zval_struct, ptr %135, i32 0, i32 1
  %137 = load i32, ptr %136, align 8
  %138 = load ptr, ptr %10, align 8
  store i32 %137, ptr %6, align 4
  store ptr %138, ptr %7, align 8
  %139 = load i32, ptr %6, align 4
  %140 = and i32 %139, 262144
  %141 = icmp ne i32 %140, 0
  br i1 %141, label %142, label %158

142:                                              ; preds = %132
  %143 = load ptr, ptr getelementptr inbounds (%struct._zend_executor_globals, ptr @executor_globals, i32 0, i32 15), align 8
  store ptr %143, ptr %8, align 8
  %144 = load ptr, ptr %8, align 8
  %145 = getelementptr inbounds %struct._zend_vm_stack, ptr %144, i32 0, i32 2
  %146 = load ptr, ptr %145, align 8
  store ptr %146, ptr %9, align 8
  %147 = load ptr, ptr %7, align 8
  %148 = load ptr, ptr getelementptr inbounds (%struct._zend_executor_globals, ptr @executor_globals, i32 0, i32 15), align 8
  %149 = getelementptr inbounds %struct._zval_struct, ptr %148, i64 2
  %150 = icmp eq ptr %147, %149
  call void @llvm.assume(i1 %150)
  %151 = load ptr, ptr %9, align 8
  %152 = load ptr, ptr %151, align 8
  store ptr %152, ptr getelementptr inbounds (%struct._zend_executor_globals, ptr @executor_globals, i32 0, i32 13), align 8
  %153 = load ptr, ptr %9, align 8
  %154 = getelementptr inbounds %struct._zend_vm_stack, ptr %153, i32 0, i32 1
  %155 = load ptr, ptr %154, align 8
  store ptr %155, ptr getelementptr inbounds (%struct._zend_executor_globals, ptr @executor_globals, i32 0, i32 14), align 8
  %156 = load ptr, ptr %9, align 8
  store ptr %156, ptr getelementptr inbounds (%struct._zend_executor_globals, ptr @executor_globals, i32 0, i32 15), align 8
  %157 = load ptr, ptr %8, align 8
  call void @_efree(ptr noundef %157) #4
  br label %160

158:                                              ; preds = %132
  %159 = load ptr, ptr %7, align 8
  store ptr %159, ptr getelementptr inbounds (%struct._zend_executor_globals, ptr @executor_globals, i32 0, i32 13), align 8
  br label %160

160:                                              ; preds = %158, %142
  store i1 false, ptr %15, align 1
  br label %162

161:                                              ; preds = %1
  store i1 true, ptr %15, align 1
  br label %162

162:                                              ; preds = %161, %160
  %163 = load i1, ptr %15, align 1
  ret i1 %163
}