; Function Attrs: nounwind uwtable
define hidden noundef zeroext i1 @zend_jit_deprecated_helper(ptr noundef %0) local_unnamed_addr #0 {
  %2 = getelementptr inbounds i8, ptr %0, i64 24
  %3 = load ptr, ptr %2, align 8
  tail call void @zend_deprecated_function(ptr noundef %3) #6
  %4 = load ptr, ptr getelementptr inbounds (%struct._zend_executor_globals, ptr @executor_globals, i64 0, i32 50), align 8
  %.not = icmp eq ptr %4, null
  br i1 %.not, label %65, label %5

5:                                                ; preds = %1
  %6 = load ptr, ptr getelementptr inbounds (%struct._zend_executor_globals, ptr @executor_globals, i64 0, i32 17), align 8
  %7 = load ptr, ptr getelementptr inbounds (%struct._zend_executor_globals, ptr @executor_globals, i64 0, i32 52), align 8
  %.not45 = icmp eq ptr %7, null
  br i1 %.not45, label %17, label %8

8:                                                ; preds = %5
  %9 = getelementptr inbounds i8, ptr %7, i64 31
  %10 = load i8, ptr %9, align 1
  %.not46 = icmp eq i8 %10, 0
  br i1 %.not46, label %17, label %11

11:                                               ; preds = %8
  %12 = getelementptr inbounds i8, ptr %7, i64 16
  %13 = load i32, ptr %12, align 8
  %14 = sext i32 %13 to i64
  %15 = getelementptr inbounds i8, ptr %6, i64 %14
  %16 = getelementptr inbounds i8, ptr %15, i64 8
  store i32 0, ptr %16, align 8
  br label %17

17:                                               ; preds = %11, %8, %5
  %18 = getelementptr inbounds i8, ptr %0, i64 32
  %19 = getelementptr inbounds i8, ptr %0, i64 44
  %20 = load i32, ptr %19, align 4
  %.not47 = icmp eq i32 %20, 0
  br i1 %.not47, label %.loopexit, label %21

21:                                               ; preds = %17
  %22 = getelementptr inbounds i8, ptr %0, i64 80
  br label %23

23:                                               ; preds = %33, %21
  %.040 = phi ptr [ %22, %21 ], [ %34, %33 ]
  %.0 = phi i32 [ %20, %21 ], [ %35, %33 ]
  %24 = getelementptr inbounds i8, ptr %.040, i64 9
  %25 = load i8, ptr %24, align 1
  %.not48 = icmp eq i8 %25, 0
  br i1 %.not48, label %33, label %26

26:                                               ; preds = %23
  %27 = load ptr, ptr %.040, align 8
  %28 = load i32, ptr %27, align 4
  %29 = icmp ne i32 %28, 0
  tail call void @llvm.assume(i1 %29)
  %30 = add i32 %28, -1
  store i32 %30, ptr %27, align 4
  %.not49 = icmp eq i32 %30, 0
  br i1 %.not49, label %31, label %33

31:                                               ; preds = %26
  %32 = load ptr, ptr %.040, align 8
  tail call void @rc_dtor_func(ptr noundef %32) #6
  br label %33

33:                                               ; preds = %31, %26, %23
  %34 = getelementptr inbounds i8, ptr %.040, i64 16
  %35 = add i32 %.0, -1
  %.not50 = icmp eq i32 %35, 0
  br i1 %.not50, label %.loopexit, label %23

.loopexit:                                        ; preds = %33, %17
  %36 = getelementptr inbounds i8, ptr %0, i64 40
  %37 = load i32, ptr %36, align 8
  %38 = and i32 %37, 2097152
  %.not51 = icmp eq i32 %38, 0
  br i1 %.not51, label %52, label %39

39:                                               ; preds = %.loopexit
  %40 = load ptr, ptr %18, align 8
  %41 = load i32, ptr %40, align 4
  %42 = icmp ne i32 %41, 0
  tail call void @llvm.assume(i1 %42)
  %43 = add i32 %41, -1
  store i32 %43, ptr %40, align 4
  %44 = icmp eq i32 %43, 0
  br i1 %44, label %45, label %46

45:                                               ; preds = %39
  tail call void @zend_objects_store_del(ptr noundef nonnull %40) #6
  br label %52

46:                                               ; preds = %39
  %47 = getelementptr inbounds i8, ptr %40, i64 4
  %48 = load i32, ptr %47, align 4
  %49 = and i32 %48, -1008
  %50 = icmp eq i32 %49, 0
  br i1 %50, label %51, label %52

51:                                               ; preds = %46
  tail call void @gc_possible_root(ptr noundef nonnull %40) #6
  br label %52

52:                                               ; preds = %45, %51, %46, %.loopexit
  %53 = load i32, ptr %36, align 8
  %54 = and i32 %53, 262144
  %.not52 = icmp eq i32 %54, 0
  br i1 %.not52, label %64, label %55

55:                                               ; preds = %52
  %56 = load ptr, ptr getelementptr inbounds (%struct._zend_executor_globals, ptr @executor_globals, i64 0, i32 15), align 8
  %57 = getelementptr inbounds i8, ptr %56, i64 16
  %58 = load ptr, ptr %57, align 8
  %59 = getelementptr inbounds i8, ptr %56, i64 32
  %60 = icmp eq ptr %59, %0
  tail call void @llvm.assume(i1 %60)
  %61 = load ptr, ptr %58, align 8
  store ptr %61, ptr getelementptr inbounds (%struct._zend_executor_globals, ptr @executor_globals, i64 0, i32 13), align 8
  %62 = getelementptr inbounds i8, ptr %58, i64 8
  %63 = load ptr, ptr %62, align 8
  store ptr %63, ptr getelementptr inbounds (%struct._zend_executor_globals, ptr @executor_globals, i64 0, i32 14), align 8
  store ptr %58, ptr getelementptr inbounds (%struct._zend_executor_globals, ptr @executor_globals, i64 0, i32 15), align 8
  tail call void @_efree(ptr noundef %56) #6
  br label %65

64:                                               ; preds = %52
  store ptr %0, ptr getelementptr inbounds (%struct._zend_executor_globals, ptr @executor_globals, i64 0, i32 13), align 8
  br label %65

65:                                               ; preds = %1, %55, %64
  ret i1 %.not
}